target datalayout = "e-m:e-p270:32:32-p271:32:32-p272:64:64-i64:64-i128:128-f80:128-n8:16:32:64-S128"
target triple = "x86_64-pc-linux-gnu"

%"class.std::vector" = type { %"struct.std::_Vector_base" }
%"struct.std::_Vector_base" = type { %"struct.std::_Vector_base<cv::Mat *, std::allocator<cv::Mat *>>::_Vector_impl" }
%"struct.std::_Vector_base<cv::Mat *, std::allocator<cv::Mat *>>::_Vector_impl" = type { %"struct.std::_Vector_base<cv::Mat *, std::allocator<cv::Mat *>>::_Vector_impl_data" }
%"struct.std::_Vector_base<cv::Mat *, std::allocator<cv::Mat *>>::_Vector_impl_data" = type { ptr, ptr, ptr }
%"class.std::vector.0" = type { %"struct.std::_Vector_base.1" }
%"struct.std::_Vector_base.1" = type { %"struct.std::_Vector_base<void (cv::ximgproc::DisparityWLSFilterImpl::*)(cv::Mat &, cv::Mat &), std::allocator<void (cv::ximgproc::DisparityWLSFilterImpl::*)(cv::Mat &, cv::Mat &)>>::_Vector_impl" }
%"struct.std::_Vector_base<void (cv::ximgproc::DisparityWLSFilterImpl::*)(cv::Mat &, cv::Mat &), std::allocator<void (cv::ximgproc::DisparityWLSFilterImpl::*)(cv::Mat &, cv::Mat &)>>::_Vector_impl" = type { %"struct.std::_Vector_base<void (cv::ximgproc::DisparityWLSFilterImpl::*)(cv::Mat &, cv::Mat &), std::allocator<void (cv::ximgproc::DisparityWLSFilterImpl::*)(cv::Mat &, cv::Mat &)>>::_Vector_impl_data" }
%"struct.std::_Vector_base<void (cv::ximgproc::DisparityWLSFilterImpl::*)(cv::Mat &, cv::Mat &), std::allocator<void (cv::ximgproc::DisparityWLSFilterImpl::*)(cv::Mat &, cv::Mat &)>>::_Vector_impl_data" = type { ptr, ptr, ptr }
%"class.cv::Range" = type { i32, i32 }
%"struct.cv::ximgproc::DisparityWLSFilterImpl::ParallelMatOp_ParBody" = type { %"class.cv::ParallelLoopBody", ptr, %"class.std::vector.0", %"class.std::vector", %"class.std::vector" }
%"class.cv::ParallelLoopBody" = type { ptr }

; Function Attrs: mustprogress nounwind uwtable
define linkonce_odr hidden noundef nonnull align 8 dereferenceable(8) ptr @_ZNKSt6vectorIPN2cv3MatESaIS2_EEixEm(ptr noundef nonnull align 8 dereferenceable(24) %0, i64 noundef %1) #8 comdat align 2 {
  %3 = alloca ptr, align 8
  %4 = alloca i64, align 8
  store ptr %0, ptr %3, align 8, !tbaa !55
  store i64 %1, ptr %4, align 8, !tbaa !143
  %5 = load ptr, ptr %3, align 8
  %6 = getelementptr inbounds nuw %"struct.std::_Vector_base", ptr %5, i32 0, i32 0
  %7 = getelementptr inbounds nuw %"struct.std::_Vector_base<cv::Mat *, std::allocator<cv::Mat *>>::_Vector_impl_data", ptr %6, i32 0, i32 0
  %8 = load ptr, ptr %7, align 8, !tbaa !75
  %9 = load i64, ptr %4, align 8, !tbaa !143
  %10 = getelementptr inbounds nuw ptr, ptr %8, i64 %9
  ret ptr %10
}

; Function Attrs: mustprogress nounwind uwtable
define linkonce_odr hidden noundef nonnull align 8 dereferenceable(16) ptr @_ZNKSt6vectorIMN2cv8ximgproc22DisparityWLSFilterImplEFvRNS0_3MatES4_ESaIS6_EEixEm(ptr noundef nonnull align 8 dereferenceable(24) %0, i64 noundef %1) #8 comdat align 2 {
  %3 = alloca ptr, align 8
  %4 = alloca i64, align 8
  store ptr %0, ptr %3, align 8, !tbaa !60
  store i64 %1, ptr %4, align 8, !tbaa !143
  %5 = load ptr, ptr %3, align 8
  %6 = getelementptr inbounds nuw %"struct.std::_Vector_base.1", ptr %5, i32 0, i32 0
  %7 = getelementptr inbounds nuw %"struct.std::_Vector_base<void (cv::ximgproc::DisparityWLSFilterImpl::*)(cv::Mat &, cv::Mat &), std::allocator<void (cv::ximgproc::DisparityWLSFilterImpl::*)(cv::Mat &, cv::Mat &)>>::_Vector_impl_data", ptr %6, i32 0, i32 0
  %8 = load ptr, ptr %7, align 8, !tbaa !68
  %9 = load i64, ptr %4, align 8, !tbaa !143
  %10 = getelementptr inbounds nuw { i64, i64 }, ptr %8, i64 %9
  ret ptr %10
}

; Function Attrs: mustprogress uwtable
define hidden void @_ZNK2cv8ximgproc22DisparityWLSFilterImpl21ParallelMatOp_ParBodyclERKNS_5RangeE(ptr noundef nonnull align 8 dereferenceable(88) %0, ptr noundef nonnull align 4 dereferenceable(8) %1) unnamed_addr #4 align 2 {
  %3 = alloca ptr, align 8
  %4 = alloca ptr, align 8
  %5 = alloca i32, align 4
  store ptr %0, ptr %3, align 8, !tbaa !71
  store ptr %1, ptr %4, align 8, !tbaa !63
  %6 = load ptr, ptr %3, align 8
  call void @llvm.lifetime.start.p0(i64 4, ptr %5) #3
  %7 = load ptr, ptr %4, align 8, !tbaa !63
  %8 = getelementptr inbounds nuw %"class.cv::Range", ptr %7, i32 0, i32 0
  %9 = load i32, ptr %8, align 4, !tbaa !65
  store i32 %9, ptr %5, align 4, !tbaa !12
  br label %10

10:                                               ; preds = %49, %2
  %11 = load i32, ptr %5, align 4, !tbaa !12
  %12 = load ptr, ptr %4, align 8, !tbaa !63
  %13 = getelementptr inbounds nuw %"class.cv::Range", ptr %12, i32 0, i32 1
  %14 = load i32, ptr %13, align 4, !tbaa !67
  %15 = icmp slt i32 %11, %14
  br i1 %15, label %17, label %16

16:                                               ; preds = %10
  call void @llvm.lifetime.end.p0(i64 4, ptr %5) #3
  br label %52

17:                                               ; preds = %10
  %18 = getelementptr inbounds nuw %"struct.cv::ximgproc::DisparityWLSFilterImpl::ParallelMatOp_ParBody", ptr %6, i32 0, i32 1
  %19 = load ptr, ptr %18, align 8, !tbaa !156
  %20 = getelementptr inbounds nuw %"struct.cv::ximgproc::DisparityWLSFilterImpl::ParallelMatOp_ParBody", ptr %6, i32 0, i32 2
  %21 = load i32, ptr %5, align 4, !tbaa !12
  %22 = sext i32 %21 to i64
  %23 = call noundef nonnull align 8 dereferenceable(16) ptr @_ZNKSt6vectorIMN2cv8ximgproc22DisparityWLSFilterImplEFvRNS0_3MatES4_ESaIS6_EEixEm(ptr noundef nonnull align 8 dereferenceable(24) %20, i64 noundef %22) #3
  %24 = load { i64, i64 }, ptr %23, align 8, !tbaa !52
  %25 = extractvalue { i64, i64 } %24, 1
  %26 = getelementptr inbounds i8, ptr %19, i64 %25
  %27 = extractvalue { i64, i64 } %24, 0
  %28 = and i64 %27, 1
  %29 = icmp ne i64 %28, 0
  br i1 %29, label %30, label %35

30:                                               ; preds = %17
  %31 = load ptr, ptr %26, align 8, !tbaa !73
  %32 = sub i64 %27, 1
  %33 = getelementptr i8, ptr %31, i64 %32, !nosanitize !37
  %34 = load ptr, ptr %33, align 8, !nosanitize !37
  br label %37

35:                                               ; preds = %17
  %36 = inttoptr i64 %27 to ptr
  br label %37

37:                                               ; preds = %35, %30
  %38 = phi ptr [ %34, %30 ], [ %36, %35 ]
  %39 = getelementptr inbounds nuw %"struct.cv::ximgproc::DisparityWLSFilterImpl::ParallelMatOp_ParBody", ptr %6, i32 0, i32 3
  %40 = load i32, ptr %5, align 4, !tbaa !12
  %41 = sext i32 %40 to i64
  %42 = call noundef nonnull align 8 dereferenceable(8) ptr @_ZNKSt6vectorIPN2cv3MatESaIS2_EEixEm(ptr noundef nonnull align 8 dereferenceable(24) %39, i64 noundef %41) #3
  %43 = load ptr, ptr %42, align 8, !tbaa !50
  %44 = getelementptr inbounds nuw %"struct.cv::ximgproc::DisparityWLSFilterImpl::ParallelMatOp_ParBody", ptr %6, i32 0, i32 4
  %45 = load i32, ptr %5, align 4, !tbaa !12
  %46 = sext i32 %45 to i64
  %47 = call noundef nonnull align 8 dereferenceable(8) ptr @_ZNKSt6vectorIPN2cv3MatESaIS2_EEixEm(ptr noundef nonnull align 8 dereferenceable(24) %44, i64 noundef %46) #3
  %48 = load ptr, ptr %47, align 8, !tbaa !50
  call void %38(ptr noundef nonnull align 8 dereferenceable(196) %26, ptr noundef nonnull align 8 dereferenceable(96) %43, ptr noundef nonnull align 8 dereferenceable(96) %48)
  br label %49

49:                                               ; preds = %37
  %50 = load i32, ptr %5, align 4, !tbaa !12
  %51 = add nsw i32 %50, 1
  store i32 %51, ptr %5, align 4, !tbaa !12
  br label %10, !llvm.loop !164

52:                                               ; preds = %16
  ret void
}