; Function Attrs: mustprogress uwtable
define hidden void @_ZNK2cv8ximgproc22DisparityWLSFilterImpl21ParallelMatOp_ParBodyclERKNS_5RangeE(ptr noundef nonnull readonly align 8 captures(none) dereferenceable(88) %0, ptr noundef nonnull readonly align 4 captures(none) dereferenceable(8) %1) unnamed_addr #3 align 2 {
  %3 = load i32, ptr %1, align 4, !tbaa !45
  %4 = getelementptr inbounds nuw i8, ptr %1, i64 4
  %5 = load i32, ptr %4, align 4, !tbaa !47
  %6 = icmp slt i32 %3, %5
  br i1 %6, label %.lr.ph, label %._crit_edge

.lr.ph:                                           ; preds = %2
  %7 = getelementptr inbounds nuw i8, ptr %0, i64 8
  %8 = getelementptr inbounds nuw i8, ptr %0, i64 16
  %9 = getelementptr inbounds nuw i8, ptr %0, i64 40
  %10 = getelementptr inbounds nuw i8, ptr %0, i64 64
  %11 = sext i32 %3 to i64
  br label %12

._crit_edge:                                      ; preds = %25, %2
  ret void

12:                                               ; preds = %.lr.ph, %25
  %indvars.iv = phi i64 [ %11, %.lr.ph ], [ %indvars.iv.next, %25 ]
  %13 = load ptr, ptr %7, align 8, !tbaa !163
  %14 = load ptr, ptr %8, align 8, !tbaa !48
  %15 = getelementptr inbounds nuw { i64, i64 }, ptr %14, i64 %indvars.iv
  %.unpack = load i64, ptr %15, align 8, !tbaa !44
  %.elt7 = getelementptr inbounds nuw i8, ptr %15, i64 8
  %.unpack8 = load i64, ptr %.elt7, align 8, !tbaa !44
  %16 = getelementptr inbounds i8, ptr %13, i64 %.unpack8
  %17 = and i64 %.unpack, 1
  %.not = icmp eq i64 %17, 0
  br i1 %.not, label %23, label %18

18:                                               ; preds = %12
  %19 = load ptr, ptr %16, align 8, !tbaa !52
  %20 = getelementptr i8, ptr %19, i64 %.unpack
  %21 = getelementptr i8, ptr %20, i64 -1
  %22 = load ptr, ptr %21, align 8, !nosanitize !122
  br label %25

23:                                               ; preds = %12
  %24 = inttoptr i64 %.unpack to ptr
  br label %25

25:                                               ; preds = %23, %18
  %26 = phi ptr [ %22, %18 ], [ %24, %23 ]
  %27 = load ptr, ptr %9, align 8, !tbaa !42
  %28 = getelementptr inbounds nuw ptr, ptr %27, i64 %indvars.iv
  %29 = load ptr, ptr %28, align 8, !tbaa !36
  %30 = load ptr, ptr %10, align 8, !tbaa !42
  %31 = getelementptr inbounds nuw ptr, ptr %30, i64 %indvars.iv
  %32 = load ptr, ptr %31, align 8, !tbaa !36
  tail call void %26(ptr noundef nonnull align 8 dereferenceable(196) %16, ptr noundef nonnull align 8 dereferenceable(96) %29, ptr noundef nonnull align 8 dereferenceable(96) %32)
  %indvars.iv.next = add nsw i64 %indvars.iv, 1
  %33 = load i32, ptr %4, align 4, !tbaa !47
  %34 = sext i32 %33 to i64
  %35 = icmp slt i64 %indvars.iv.next, %34
  br i1 %35, label %12, label %._crit_edge, !llvm.loop !173
}